; Function Attrs: nofree nosync nounwind memory(readwrite, inaccessiblemem: none) uwtable
define i32 @Sfm_ObjRef(ptr noundef readonly captures(none) %0, i32 noundef %1) local_unnamed_addr #0 {
  %3 = getelementptr i8, ptr %0, i64 64
  %4 = sext i32 %1 to i64
  %.val12 = load ptr, ptr %3, align 8, !tbaa !19
  %5 = getelementptr %struct.Vec_Int_t_, ptr %.val12, i64 %4, i32 1
  %.val1.i13 = load i32, ptr %5, align 4, !tbaa !20
  %6 = icmp sgt i32 %.val1.i13, 0
  br i1 %6, label %.lr.ph, label %.critedge

.lr.ph:                                           ; preds = %2, %.lr.ph
  %indvars.iv = phi i64 [ %indvars.iv.next, %.lr.ph ], [ 0, %2 ]
  %.val16 = phi ptr [ %.val, %.lr.ph ], [ %.val12, %2 ]
  %.015 = phi i32 [ %11, %.lr.ph ], [ 1, %2 ]
  %7 = getelementptr %struct.Vec_Int_t_, ptr %.val16, i64 %4, i32 2
  %.val2.i = load ptr, ptr %7, align 8, !tbaa !21
  %8 = getelementptr inbounds nuw i32, ptr %.val2.i, i64 %indvars.iv
  %9 = load i32, ptr %8, align 4, !tbaa !22
  %10 = tail call i32 @Sfm_ObjRef_rec(ptr noundef nonnull %0, i32 noundef %9)
  %11 = add nsw i32 %10, %.015
  %indvars.iv.next = add nuw nsw i64 %indvars.iv, 1
  %.val = load ptr, ptr %3, align 8, !tbaa !19
  %12 = getelementptr %struct.Vec_Int_t_, ptr %.val, i64 %4, i32 1
  %.val1.i = load i32, ptr %12, align 4, !tbaa !20
  %13 = sext i32 %.val1.i to i64
  %14 = icmp slt i64 %indvars.iv.next, %13
  br i1 %14, label %.lr.ph, label %.critedge, !llvm.loop !25

.critedge:                                        ; preds = %.lr.ph, %2
  %.0.lcssa = phi i32 [ 1, %2 ], [ %11, %.lr.ph ]
  ret i32 %.0.lcssa
}